; Function Attrs: nofree norecurse nosync nounwind memory(read, inaccessiblemem: none) uwtable
define i32 @Bac_PtrMemory(ptr noundef readonly %0) local_unnamed_addr #2 {
  %.not.i = icmp eq ptr %0, null
  br i1 %.not.i, label %Vec_PtrMemory.exit, label %2

2:                                                ; preds = %1
  %3 = load i32, ptr %0, align 8
  %4 = sext i32 %3 to i64
  %5 = uitofp i64 %4 to double
  %6 = tail call double @llvm.fmuladd.f64(double %5, double 8.000000e+00, double 1.600000e+01)
  %7 = fptosi double %6 to i32
  br label %Vec_PtrMemory.exit

Vec_PtrMemory.exit:                               ; preds = %1, %2
  %8 = phi i32 [ %7, %2 ], [ 0, %1 ]
  %9 = getelementptr i8, ptr %0, i64 4
  %.val9 = load i32, ptr %9, align 4
  %10 = icmp sgt i32 %.val9, 1
  br i1 %10, label %.lr.ph, label %.critedge

.lr.ph:                                           ; preds = %Vec_PtrMemory.exit
  %11 = getelementptr i8, ptr %0, i64 8
  %.val = load ptr, ptr %11, align 8
  %wide.trip.count = zext nneg i32 %.val9 to i64
  br label %12

12:                                               ; preds = %.lr.ph, %12
  %indvars.iv = phi i64 [ 1, %.lr.ph ], [ %indvars.iv.next, %12 ]
  %.011 = phi i32 [ %8, %.lr.ph ], [ %16, %12 ]
  %13 = getelementptr inbounds nuw ptr, ptr %.val, i64 %indvars.iv
  %14 = load ptr, ptr %13, align 8
  %15 = tail call i32 @Bac_PtrMemoryNtk(ptr noundef %14)
  %16 = add nsw i32 %15, %.011
  %indvars.iv.next = add nuw nsw i64 %indvars.iv, 1
  %exitcond.not = icmp eq i64 %indvars.iv.next, %wide.trip.count
  br i1 %exitcond.not, label %.critedge, label %12, !llvm.loop !8

.critedge:                                        ; preds = %12, %Vec_PtrMemory.exit
  %.0.lcssa = phi i32 [ %8, %Vec_PtrMemory.exit ], [ %16, %12 ]
  ret i32 %.0.lcssa
}